; Function Attrs: mustprogress uwtable
define void @_ZN6google8protobuf33ExtensionRangeOptions_DeclarationC2EPNS0_5ArenaERKS1_(ptr noundef nonnull align 8 dereferenceable(48) %this, ptr noundef %arena, ptr noundef nonnull align 8 dereferenceable(48) %from) unnamed_addr #3 align 2 personality ptr @__gxx_personality_v0 {
entry:
  %_internal_metadata_.i.i = getelementptr inbounds i8, ptr %this, i64 8
  %0 = ptrtoint ptr %arena to i64
  store i64 %0, ptr %_internal_metadata_.i.i, align 8
  store ptr getelementptr inbounds ({ [13 x ptr] }, ptr @_ZTVN6google8protobuf33ExtensionRangeOptions_DeclarationE, i64 0, i32 0, i64 2), ptr %this, align 8
  %_internal_metadata_2 = getelementptr inbounds i8, ptr %from, i64 8
  %1 = load i64, ptr %_internal_metadata_2, align 8
  %and.i23 = and i64 %1, 1
  %tobool.i24.not = icmp eq i64 %and.i23, 0
  br i1 %tobool.i24.not, label %invoke.cont3, label %if.then.i13

if.then.i13:                                      ; preds = %entry
  %and.i = and i64 %1, -2
  %2 = inttoptr i64 %and.i to ptr
  %unknown_fields.i = getelementptr inbounds i8, ptr %2, i64 8
  tail call void @_ZN6google8protobuf8internal16InternalMetadata11DoMergeFromINS0_15UnknownFieldSetEEEvRKT_(ptr noundef nonnull align 8 dereferenceable(8) %_internal_metadata_.i.i, ptr noundef nonnull align 8 dereferenceable(24) %unknown_fields.i)
  br label %invoke.cont3

invoke.cont3:                                     ; preds = %if.then.i13, %entry
  %3 = getelementptr inbounds i8, ptr %this, i64 16
  %4 = getelementptr inbounds i8, ptr %from, i64 16
  %5 = load i32, ptr %4, align 8
  store i32 %5, ptr %3, align 8
  %_cached_size_.i = getelementptr inbounds i8, ptr %this, i64 20
  store i32 0, ptr %_cached_size_.i, align 4
  %full_name_.i = getelementptr inbounds i8, ptr %this, i64 24
  %full_name_3.i = getelementptr inbounds i8, ptr %from, i64 24
  %6 = load ptr, ptr %full_name_3.i, align 8
  %7 = ptrtoint ptr %6 to i64
  %and.i.i.i = and i64 %7, 3
  %cmp.i.i.i = icmp eq i64 %and.i.i.i, 0
  br i1 %cmp.i.i.i, label %.noexc17, label %cond.false.i.i

cond.false.i.i:                                   ; preds = %invoke.cont3
  %call2.i.i8 = tail call ptr @_ZNK6google8protobuf8internal15TaggedStringPtr9ForceCopyEPNS0_5ArenaE(ptr noundef nonnull align 8 dereferenceable(8) %full_name_3.i, ptr noundef %arena)
  br label %.noexc17

.noexc17:                                         ; preds = %cond.false.i.i, %invoke.cont3
  %retval.sroa.0.0.i.i = phi ptr [ %6, %invoke.cont3 ], [ %call2.i.i8, %cond.false.i.i ]
  store ptr %retval.sroa.0.0.i.i, ptr %full_name_.i, align 8
  %type_4.i = getelementptr inbounds i8, ptr %from, i64 32
  %8 = load ptr, ptr %type_4.i, align 8
  %9 = ptrtoint ptr %8 to i64
  %and.i.i.i9 = and i64 %9, 3
  %cmp.i.i.i10 = icmp eq i64 %and.i.i.i9, 0
  br i1 %cmp.i.i.i10, label %invoke.cont4, label %cond.false.i.i11

cond.false.i.i11:                                 ; preds = %.noexc17
  %call2.i.i14 = tail call ptr @_ZNK6google8protobuf8internal15TaggedStringPtr9ForceCopyEPNS0_5ArenaE(ptr noundef nonnull align 8 dereferenceable(8) %type_4.i, ptr noundef %arena)
  br label %invoke.cont4

invoke.cont4:                                     ; preds = %cond.false.i.i11, %.noexc17
  %retval.sroa.0.0.i.i12 = phi ptr [ %8, %.noexc17 ], [ %call2.i.i14, %cond.false.i.i11 ]
  %type_.i = getelementptr inbounds i8, ptr %this, i64 32
  store ptr %retval.sroa.0.0.i.i12, ptr %type_.i, align 8
  %add.ptr = getelementptr inbounds i8, ptr %this, i64 40
  %add.ptr5 = getelementptr inbounds i8, ptr %from, i64 40
  tail call void @llvm.memcpy.p0.p0.i64(ptr noundef nonnull align 8 dereferenceable(6) %add.ptr, ptr noundef nonnull align 8 dereferenceable(6) %add.ptr5, i64 6, i1 false)
  ret void
}